target datalayout = "e-m:e-p270:32:32-p271:32:32-p272:64:64-i64:64-i128:128-f80:128-n8:16:32:64-S128"
target triple = "x86_64-pc-linux-gnu"

%struct.H5C_t = type { i8, ptr, ptr, i32, ptr, i64, i64, ptr, i8, ptr, i8, i8, i32, i64, [6 x i32], [6 x i64], i64, [6 x i64], i64, [6 x i64], [65536 x ptr], i32, i64, ptr, ptr, i64, ptr, ptr, i8, i8, i32, i64, [6 x i32], [6 x i64], ptr, i32, ptr, i8, i32, i32, i64, ptr, ptr, i32, i64, ptr, ptr, i32, i64, ptr, ptr, i8, i8, i64, i8, i8, i8, i8, i8, i8, %struct.H5C_auto_size_ctl_t, i32, [10 x i8], [11 x i32], i32, i32, i32, [10 x %struct.H5C_cache_entry_t], i64, i64, %struct.H5C_cache_image_ctl_t, i8, i8, i8, i8, i64, i64, i64, i64, i64, i64, i64, i32, ptr, ptr, i8, i8, [32 x i8] }
%struct.H5C_auto_size_ctl_t = type { i32, ptr, i8, i64, double, i64, i64, i64, i32, double, double, i8, i64, i32, double, double, i32, double, double, i8, i64, i32, i8, double }
%struct.H5C_cache_entry_t = type { ptr, i64, i64, ptr, i8, ptr, i8, i8, i8, i8, i32, i8, i8, i8, i8, i8, i32, ptr, i32, i32, i32, i32, i32, i8, i8, ptr, ptr, ptr, ptr, ptr, ptr, i8, i32, i8, i64, ptr, i64, i64, i32, i8, i32, i32, i8, ptr, ptr, ptr }
%struct.H5C_cache_image_ctl_t = type { i32, i8, i8, i32, i32 }

@H5C_init_g = external global i8, align 1
@H5_libterm_g = external global i8, align 1
@.str = private unnamed_addr constant [100 x i8] c"generated/home/dtcxzyw/WorkSpace/Projects/compilers/llvm-opt-benchmark/bench/hdf5/hdf5/src/H5Cint.c\00", align 1
@H5E_CACHE_g = external global i64, align 8
@H5E_SYSTEM_g = external global i64, align 8
@.str.11 = private unnamed_addr constant [22 x i8] c"ring buffer underflow\00", align 1
@.str.12 = private unnamed_addr constant [24 x i8] c"unused marker in LRU?!?\00", align 1
@__func__.H5C__autoadjust__ageout__remove_excess_markers = private unnamed_addr constant [47 x i8] c"H5C__autoadjust__ageout__remove_excess_markers\00", align 1
@.str.13 = private unnamed_addr constant [27 x i8] c"no excess markers on entry\00", align 1

; Function Attrs: nounwind uwtable
define i32 @H5C__autoadjust__ageout__remove_excess_markers(ptr noundef %0) #0 {
  %2 = alloca ptr, align 8
  %3 = alloca i32, align 4
  %4 = alloca i32, align 4
  %5 = alloca i32, align 4
  %6 = alloca i8, align 1
  store ptr %0, ptr %2, align 8, !tbaa !38
  call void @llvm.lifetime.start.p0(i64 4, ptr %3) #4
  call void @llvm.lifetime.start.p0(i64 4, ptr %4) #4
  call void @llvm.lifetime.start.p0(i64 4, ptr %5) #4
  store i32 0, ptr %5, align 4, !tbaa !40
  call void @llvm.lifetime.start.p0(i64 1, ptr %6) #4
  store i8 0, ptr %6, align 1, !tbaa !8
  %7 = load i8, ptr @H5C_init_g, align 1, !tbaa !8, !range !41, !noundef !42
  %8 = trunc i8 %7 to i1
  br i1 %8, label %13, label %9

9:                                                ; preds = %1
  %10 = load i8, ptr @H5_libterm_g, align 1, !tbaa !8, !range !41, !noundef !42
  %11 = trunc i8 %10 to i1
  %12 = xor i1 %11, true
  br label %13

13:                                               ; preds = %9, %1
  %14 = phi i1 [ true, %1 ], [ %12, %9 ]
  %15 = xor i1 %14, true
  %16 = xor i1 %15, true
  %17 = zext i1 %16 to i32
  %18 = sext i32 %17 to i64
  %19 = call i64 @llvm.expect.i64(i64 %18, i64 1)
  %20 = icmp ne i64 %19, 0
  br i1 %20, label %21, label %263

21:                                               ; preds = %13
  %22 = load ptr, ptr %2, align 8, !tbaa !38
  %23 = getelementptr inbounds nuw %struct.H5C_t, ptr %22, i32 0, i32 61
  %24 = load i32, ptr %23, align 8, !tbaa !64
  %25 = load ptr, ptr %2, align 8, !tbaa !38
  %26 = getelementptr inbounds nuw %struct.H5C_t, ptr %25, i32 0, i32 60
  %27 = getelementptr inbounds nuw %struct.H5C_auto_size_ctl_t, ptr %26, i32 0, i32 21
  %28 = load i32, ptr %27, align 8, !tbaa !65
  %29 = icmp sle i32 %24, %28
  br i1 %29, label %30, label %49

30:                                               ; preds = %21
  br label %31

31:                                               ; preds = %30
  br label %32

32:                                               ; preds = %31
  br label %33

33:                                               ; preds = %32
  %34 = load i64, ptr @H5E_CACHE_g, align 8, !tbaa !39
  %35 = load i64, ptr @H5E_SYSTEM_g, align 8, !tbaa !39
  %36 = call i32 (ptr, ptr, i32, i64, i64, ptr, ...) @H5E_printf_stack(ptr noundef @.str, ptr noundef @__func__.H5C__autoadjust__ageout__remove_excess_markers, i32 noundef 804, i64 noundef %34, i64 noundef %35, ptr noundef @.str.13)
  br label %37

37:                                               ; preds = %33
  br label %38

38:                                               ; preds = %37
  store i8 1, ptr %6, align 1, !tbaa !8
  %39 = load i8, ptr %6, align 1, !tbaa !8, !range !41, !noundef !42
  %40 = trunc i8 %39 to i1
  %41 = zext i1 %40 to i8
  store i8 %41, ptr %6, align 1, !tbaa !8
  br label %42

42:                                               ; preds = %38
  br label %43

43:                                               ; preds = %42
  br label %44

44:                                               ; preds = %43
  store i32 -1, ptr %5, align 4, !tbaa !40
  br label %262

45:                                               ; No predecessors!
  br label %46

46:                                               ; preds = %45
  br label %47

47:                                               ; preds = %46
  br label %48

48:                                               ; preds = %47
  br label %49

49:                                               ; preds = %48, %21
  br label %50

50:                                               ; preds = %224, %49
  %51 = load ptr, ptr %2, align 8, !tbaa !38
  %52 = getelementptr inbounds nuw %struct.H5C_t, ptr %51, i32 0, i32 61
  %53 = load i32, ptr %52, align 8, !tbaa !64
  %54 = load ptr, ptr %2, align 8, !tbaa !38
  %55 = getelementptr inbounds nuw %struct.H5C_t, ptr %54, i32 0, i32 60
  %56 = getelementptr inbounds nuw %struct.H5C_auto_size_ctl_t, ptr %55, i32 0, i32 21
  %57 = load i32, ptr %56, align 8, !tbaa !65
  %58 = icmp sgt i32 %53, %57
  br i1 %58, label %59, label %261

59:                                               ; preds = %50
  %60 = load ptr, ptr %2, align 8, !tbaa !38
  %61 = getelementptr inbounds nuw %struct.H5C_t, ptr %60, i32 0, i32 64
  %62 = load i32, ptr %61, align 4, !tbaa !100
  store i32 %62, ptr %3, align 4, !tbaa !40
  %63 = load ptr, ptr %2, align 8, !tbaa !38
  %64 = getelementptr inbounds nuw %struct.H5C_t, ptr %63, i32 0, i32 63
  %65 = load i32, ptr %3, align 4, !tbaa !40
  %66 = sext i32 %65 to i64
  %67 = getelementptr inbounds [11 x i32], ptr %64, i64 0, i64 %66
  %68 = load i32, ptr %67, align 4, !tbaa !40
  store i32 %68, ptr %4, align 4, !tbaa !40
  %69 = load ptr, ptr %2, align 8, !tbaa !38
  %70 = getelementptr inbounds nuw %struct.H5C_t, ptr %69, i32 0, i32 64
  %71 = load i32, ptr %70, align 4, !tbaa !100
  %72 = add nsw i32 %71, 1
  %73 = srem i32 %72, 11
  %74 = load ptr, ptr %2, align 8, !tbaa !38
  %75 = getelementptr inbounds nuw %struct.H5C_t, ptr %74, i32 0, i32 64
  store i32 %73, ptr %75, align 4, !tbaa !100
  %76 = load ptr, ptr %2, align 8, !tbaa !38
  %77 = getelementptr inbounds nuw %struct.H5C_t, ptr %76, i32 0, i32 66
  %78 = load i32, ptr %77, align 4, !tbaa !83
  %79 = icmp sle i32 %78, 0
  br i1 %79, label %80, label %99

80:                                               ; preds = %59
  br label %81

81:                                               ; preds = %80
  br label %82

82:                                               ; preds = %81
  br label %83

83:                                               ; preds = %82
  %84 = load i64, ptr @H5E_CACHE_g, align 8, !tbaa !39
  %85 = load i64, ptr @H5E_SYSTEM_g, align 8, !tbaa !39
  %86 = call i32 (ptr, ptr, i32, i64, i64, ptr, ...) @H5E_printf_stack(ptr noundef @.str, ptr noundef @__func__.H5C__autoadjust__ageout__remove_excess_markers, i32 noundef 817, i64 noundef %84, i64 noundef %85, ptr noundef @.str.11)
  br label %87

87:                                               ; preds = %83
  br label %88

88:                                               ; preds = %87
  store i8 1, ptr %6, align 1, !tbaa !8
  %89 = load i8, ptr %6, align 1, !tbaa !8, !range !41, !noundef !42
  %90 = trunc i8 %89 to i1
  %91 = zext i1 %90 to i8
  store i8 %91, ptr %6, align 1, !tbaa !8
  br label %92

92:                                               ; preds = %88
  br label %93

93:                                               ; preds = %92
  br label %94

94:                                               ; preds = %93
  store i32 -1, ptr %5, align 4, !tbaa !40
  br label %262

95:                                               ; No predecessors!
  br label %96

96:                                               ; preds = %95
  br label %97

97:                                               ; preds = %96
  br label %98

98:                                               ; preds = %97
  br label %99

99:                                               ; preds = %98, %59
  %100 = load ptr, ptr %2, align 8, !tbaa !38
  %101 = getelementptr inbounds nuw %struct.H5C_t, ptr %100, i32 0, i32 66
  %102 = load i32, ptr %101, align 4, !tbaa !83
  %103 = sub nsw i32 %102, 1
  store i32 %103, ptr %101, align 4, !tbaa !83
  %104 = load ptr, ptr %2, align 8, !tbaa !38
  %105 = getelementptr inbounds nuw %struct.H5C_t, ptr %104, i32 0, i32 62
  %106 = load i32, ptr %4, align 4, !tbaa !40
  %107 = sext i32 %106 to i64
  %108 = getelementptr inbounds [10 x i8], ptr %105, i64 0, i64 %107
  %109 = load i8, ptr %108, align 1, !tbaa !8, !range !41, !noundef !42
  %110 = trunc i8 %109 to i1
  %111 = zext i1 %110 to i32
  %112 = icmp ne i32 %111, 1
  br i1 %112, label %113, label %132

113:                                              ; preds = %99
  br label %114

114:                                              ; preds = %113
  br label %115

115:                                              ; preds = %114
  br label %116

116:                                              ; preds = %115
  %117 = load i64, ptr @H5E_CACHE_g, align 8, !tbaa !39
  %118 = load i64, ptr @H5E_SYSTEM_g, align 8, !tbaa !39
  %119 = call i32 (ptr, ptr, i32, i64, i64, ptr, ...) @H5E_printf_stack(ptr noundef @.str, ptr noundef @__func__.H5C__autoadjust__ageout__remove_excess_markers, i32 noundef 821, i64 noundef %117, i64 noundef %118, ptr noundef @.str.12)
  br label %120

120:                                              ; preds = %116
  br label %121

121:                                              ; preds = %120
  store i8 1, ptr %6, align 1, !tbaa !8
  %122 = load i8, ptr %6, align 1, !tbaa !8, !range !41, !noundef !42
  %123 = trunc i8 %122 to i1
  %124 = zext i1 %123 to i8
  store i8 %124, ptr %6, align 1, !tbaa !8
  br label %125

125:                                              ; preds = %121
  br label %126

126:                                              ; preds = %125
  br label %127

127:                                              ; preds = %126
  store i32 -1, ptr %5, align 4, !tbaa !40
  br label %262

128:                                              ; No predecessors!
  br label %129

129:                                              ; preds = %128
  br label %130

130:                                              ; preds = %129
  br label %131

131:                                              ; preds = %130
  br label %132

132:                                              ; preds = %131, %99
  %133 = load ptr, ptr %2, align 8, !tbaa !38
  %134 = getelementptr inbounds nuw %struct.H5C_t, ptr %133, i32 0, i32 49
  %135 = load ptr, ptr %134, align 8, !tbaa !84
  %136 = load ptr, ptr %2, align 8, !tbaa !38
  %137 = getelementptr inbounds nuw %struct.H5C_t, ptr %136, i32 0, i32 67
  %138 = load i32, ptr %4, align 4, !tbaa !40
  %139 = sext i32 %138 to i64
  %140 = getelementptr inbounds [10 x %struct.H5C_cache_entry_t], ptr %137, i64 0, i64 %139
  %141 = icmp eq ptr %135, %140
  br i1 %141, label %142, label %162

142:                                              ; preds = %132
  %143 = load ptr, ptr %2, align 8, !tbaa !38
  %144 = getelementptr inbounds nuw %struct.H5C_t, ptr %143, i32 0, i32 67
  %145 = load i32, ptr %4, align 4, !tbaa !40
  %146 = sext i32 %145 to i64
  %147 = getelementptr inbounds [10 x %struct.H5C_cache_entry_t], ptr %144, i64 0, i64 %146
  %148 = getelementptr inbounds nuw %struct.H5C_cache_entry_t, ptr %147, i32 0, i32 29
  %149 = load ptr, ptr %148, align 8, !tbaa !91
  %150 = load ptr, ptr %2, align 8, !tbaa !38
  %151 = getelementptr inbounds nuw %struct.H5C_t, ptr %150, i32 0, i32 49
  store ptr %149, ptr %151, align 8, !tbaa !84
  %152 = load ptr, ptr %2, align 8, !tbaa !38
  %153 = getelementptr inbounds nuw %struct.H5C_t, ptr %152, i32 0, i32 49
  %154 = load ptr, ptr %153, align 8, !tbaa !84
  %155 = icmp ne ptr %154, null
  br i1 %155, label %156, label %161

156:                                              ; preds = %142
  %157 = load ptr, ptr %2, align 8, !tbaa !38
  %158 = getelementptr inbounds nuw %struct.H5C_t, ptr %157, i32 0, i32 49
  %159 = load ptr, ptr %158, align 8, !tbaa !84
  %160 = getelementptr inbounds nuw %struct.H5C_cache_entry_t, ptr %159, i32 0, i32 30
  store ptr null, ptr %160, align 8, !tbaa !86
  br label %161

161:                                              ; preds = %156, %142
  br label %178

162:                                              ; preds = %132
  %163 = load ptr, ptr %2, align 8, !tbaa !38
  %164 = getelementptr inbounds nuw %struct.H5C_t, ptr %163, i32 0, i32 67
  %165 = load i32, ptr %4, align 4, !tbaa !40
  %166 = sext i32 %165 to i64
  %167 = getelementptr inbounds [10 x %struct.H5C_cache_entry_t], ptr %164, i64 0, i64 %166
  %168 = getelementptr inbounds nuw %struct.H5C_cache_entry_t, ptr %167, i32 0, i32 29
  %169 = load ptr, ptr %168, align 8, !tbaa !91
  %170 = load ptr, ptr %2, align 8, !tbaa !38
  %171 = getelementptr inbounds nuw %struct.H5C_t, ptr %170, i32 0, i32 67
  %172 = load i32, ptr %4, align 4, !tbaa !40
  %173 = sext i32 %172 to i64
  %174 = getelementptr inbounds [10 x %struct.H5C_cache_entry_t], ptr %171, i64 0, i64 %173
  %175 = getelementptr inbounds nuw %struct.H5C_cache_entry_t, ptr %174, i32 0, i32 30
  %176 = load ptr, ptr %175, align 8, !tbaa !86
  %177 = getelementptr inbounds nuw %struct.H5C_cache_entry_t, ptr %176, i32 0, i32 29
  store ptr %169, ptr %177, align 8, !tbaa !91
  br label %178

178:                                              ; preds = %162, %161
  %179 = load ptr, ptr %2, align 8, !tbaa !38
  %180 = getelementptr inbounds nuw %struct.H5C_t, ptr %179, i32 0, i32 50
  %181 = load ptr, ptr %180, align 8, !tbaa !85
  %182 = load ptr, ptr %2, align 8, !tbaa !38
  %183 = getelementptr inbounds nuw %struct.H5C_t, ptr %182, i32 0, i32 67
  %184 = load i32, ptr %4, align 4, !tbaa !40
  %185 = sext i32 %184 to i64
  %186 = getelementptr inbounds [10 x %struct.H5C_cache_entry_t], ptr %183, i64 0, i64 %185
  %187 = icmp eq ptr %181, %186
  br i1 %187, label %188, label %208

188:                                              ; preds = %178
  %189 = load ptr, ptr %2, align 8, !tbaa !38
  %190 = getelementptr inbounds nuw %struct.H5C_t, ptr %189, i32 0, i32 67
  %191 = load i32, ptr %4, align 4, !tbaa !40
  %192 = sext i32 %191 to i64
  %193 = getelementptr inbounds [10 x %struct.H5C_cache_entry_t], ptr %190, i64 0, i64 %192
  %194 = getelementptr inbounds nuw %struct.H5C_cache_entry_t, ptr %193, i32 0, i32 30
  %195 = load ptr, ptr %194, align 8, !tbaa !86
  %196 = load ptr, ptr %2, align 8, !tbaa !38
  %197 = getelementptr inbounds nuw %struct.H5C_t, ptr %196, i32 0, i32 50
  store ptr %195, ptr %197, align 8, !tbaa !85
  %198 = load ptr, ptr %2, align 8, !tbaa !38
  %199 = getelementptr inbounds nuw %struct.H5C_t, ptr %198, i32 0, i32 50
  %200 = load ptr, ptr %199, align 8, !tbaa !85
  %201 = icmp ne ptr %200, null
  br i1 %201, label %202, label %207

202:                                              ; preds = %188
  %203 = load ptr, ptr %2, align 8, !tbaa !38
  %204 = getelementptr inbounds nuw %struct.H5C_t, ptr %203, i32 0, i32 50
  %205 = load ptr, ptr %204, align 8, !tbaa !85
  %206 = getelementptr inbounds nuw %struct.H5C_cache_entry_t, ptr %205, i32 0, i32 29
  store ptr null, ptr %206, align 8, !tbaa !91
  br label %207

207:                                              ; preds = %202, %188
  br label %224

208:                                              ; preds = %178
  %209 = load ptr, ptr %2, align 8, !tbaa !38
  %210 = getelementptr inbounds nuw %struct.H5C_t, ptr %209, i32 0, i32 67
  %211 = load i32, ptr %4, align 4, !tbaa !40
  %212 = sext i32 %211 to i64
  %213 = getelementptr inbounds [10 x %struct.H5C_cache_entry_t], ptr %210, i64 0, i64 %212
  %214 = getelementptr inbounds nuw %struct.H5C_cache_entry_t, ptr %213, i32 0, i32 30
  %215 = load ptr, ptr %214, align 8, !tbaa !86
  %216 = load ptr, ptr %2, align 8, !tbaa !38
  %217 = getelementptr inbounds nuw %struct.H5C_t, ptr %216, i32 0, i32 67
  %218 = load i32, ptr %4, align 4, !tbaa !40
  %219 = sext i32 %218 to i64
  %220 = getelementptr inbounds [10 x %struct.H5C_cache_entry_t], ptr %217, i64 0, i64 %219
  %221 = getelementptr inbounds nuw %struct.H5C_cache_entry_t, ptr %220, i32 0, i32 29
  %222 = load ptr, ptr %221, align 8, !tbaa !91
  %223 = getelementptr inbounds nuw %struct.H5C_cache_entry_t, ptr %222, i32 0, i32 30
  store ptr %215, ptr %223, align 8, !tbaa !86
  br label %224

224:                                              ; preds = %208, %207
  %225 = load ptr, ptr %2, align 8, !tbaa !38
  %226 = getelementptr inbounds nuw %struct.H5C_t, ptr %225, i32 0, i32 67
  %227 = load i32, ptr %4, align 4, !tbaa !40
  %228 = sext i32 %227 to i64
  %229 = getelementptr inbounds [10 x %struct.H5C_cache_entry_t], ptr %226, i64 0, i64 %228
  %230 = getelementptr inbounds nuw %struct.H5C_cache_entry_t, ptr %229, i32 0, i32 29
  store ptr null, ptr %230, align 8, !tbaa !91
  %231 = load ptr, ptr %2, align 8, !tbaa !38
  %232 = getelementptr inbounds nuw %struct.H5C_t, ptr %231, i32 0, i32 67
  %233 = load i32, ptr %4, align 4, !tbaa !40
  %234 = sext i32 %233 to i64
  %235 = getelementptr inbounds [10 x %struct.H5C_cache_entry_t], ptr %232, i64 0, i64 %234
  %236 = getelementptr inbounds nuw %struct.H5C_cache_entry_t, ptr %235, i32 0, i32 30
  store ptr null, ptr %236, align 8, !tbaa !86
  %237 = load ptr, ptr %2, align 8, !tbaa !38
  %238 = getelementptr inbounds nuw %struct.H5C_t, ptr %237, i32 0, i32 47
  %239 = load i32, ptr %238, align 8, !tbaa !92
  %240 = add i32 %239, -1
  store i32 %240, ptr %238, align 8, !tbaa !92
  %241 = load ptr, ptr %2, align 8, !tbaa !38
  %242 = getelementptr inbounds nuw %struct.H5C_t, ptr %241, i32 0, i32 67
  %243 = load i32, ptr %4, align 4, !tbaa !40
  %244 = sext i32 %243 to i64
  %245 = getelementptr inbounds [10 x %struct.H5C_cache_entry_t], ptr %242, i64 0, i64 %244
  %246 = getelementptr inbounds nuw %struct.H5C_cache_entry_t, ptr %245, i32 0, i32 2
  %247 = load i64, ptr %246, align 8, !tbaa !93
  %248 = load ptr, ptr %2, align 8, !tbaa !38
  %249 = getelementptr inbounds nuw %struct.H5C_t, ptr %248, i32 0, i32 48
  %250 = load i64, ptr %249, align 8, !tbaa !94
  %251 = sub i64 %250, %247
  store i64 %251, ptr %249, align 8, !tbaa !94
  %252 = load ptr, ptr %2, align 8, !tbaa !38
  %253 = getelementptr inbounds nuw %struct.H5C_t, ptr %252, i32 0, i32 62
  %254 = load i32, ptr %4, align 4, !tbaa !40
  %255 = sext i32 %254 to i64
  %256 = getelementptr inbounds [10 x i8], ptr %253, i64 0, i64 %255
  store i8 0, ptr %256, align 1, !tbaa !8
  %257 = load ptr, ptr %2, align 8, !tbaa !38
  %258 = getelementptr inbounds nuw %struct.H5C_t, ptr %257, i32 0, i32 61
  %259 = load i32, ptr %258, align 8, !tbaa !64
  %260 = sub nsw i32 %259, 1
  store i32 %260, ptr %258, align 8, !tbaa !64
  br label %50, !llvm.loop !102

261:                                              ; preds = %50
  br label %262

262:                                              ; preds = %261, %127, %94, %44
  br label %263

263:                                              ; preds = %262, %13
  %264 = load i32, ptr %5, align 4, !tbaa !40
  call void @llvm.lifetime.end.p0(i64 1, ptr %6) #4
  call void @llvm.lifetime.end.p0(i64 4, ptr %5) #4
  call void @llvm.lifetime.end.p0(i64 4, ptr %4) #4
  call void @llvm.lifetime.end.p0(i64 4, ptr %3) #4
  ret i32 %264
}