; Function Attrs: nounwind uwtable
define range(i32 -1, 1) i32 @H5C__autoadjust__ageout__remove_excess_markers(ptr noundef captures(address) %0) local_unnamed_addr #0 {
  %2 = load i8, ptr @H5C_init_g, align 1, !tbaa !38, !range !39, !noundef !40
  %3 = trunc nuw i8 %2 to i1
  %4 = load i8, ptr @H5_libterm_g, align 1, !range !39
  %5 = trunc nuw i8 %4 to i1
  %6 = xor i1 %5, true
  %7 = select i1 %3, i1 true, i1 %6
  br i1 %7, label %8, label %.loopexit, !prof !41

8:                                                ; preds = %1
  %9 = getelementptr inbounds nuw i8, ptr %0, i64 525048
  %10 = load i32, ptr %9, align 8, !tbaa !63
  %11 = getelementptr inbounds nuw i8, ptr %0, i64 525032
  %12 = load i32, ptr %11, align 8, !tbaa !64
  %.not = icmp sgt i32 %10, %12
  br i1 %.not, label %.lr.ph, label %22

.lr.ph:                                           ; preds = %8
  %13 = getelementptr inbounds nuw i8, ptr %0, i64 525108
  %14 = getelementptr inbounds nuw i8, ptr %0, i64 525064
  %15 = getelementptr inbounds nuw i8, ptr %0, i64 525116
  %16 = getelementptr inbounds nuw i8, ptr %0, i64 525052
  %17 = getelementptr inbounds nuw i8, ptr %0, i64 524824
  %18 = getelementptr inbounds nuw i8, ptr %0, i64 525120
  %19 = getelementptr inbounds nuw i8, ptr %0, i64 524832
  %20 = getelementptr inbounds nuw i8, ptr %0, i64 524808
  %21 = getelementptr inbounds nuw i8, ptr %0, i64 524816
  %.promoted58 = load i32, ptr %13, align 4, !tbaa !113
  %.promoted59 = load i32, ptr %15, align 4, !tbaa !82
  br label %26

22:                                               ; preds = %8
  %23 = load i64, ptr @H5E_CACHE_g, align 8, !tbaa !36
  %24 = load i64, ptr @H5E_SYSTEM_g, align 8, !tbaa !36
  %25 = tail call i32 (ptr, ptr, i32, i64, i64, ptr, ...) @H5E_printf_stack(ptr noundef nonnull @.str, ptr noundef nonnull @__func__.H5C__autoadjust__ageout__remove_excess_markers, i32 noundef 804, i64 noundef %23, i64 noundef %24, ptr noundef nonnull @.str.13) #5
  br label %.loopexit

26:                                               ; preds = %.lr.ph, %73
  %27 = phi i32 [ %.promoted59, %.lr.ph ], [ %41, %73 ]
  %28 = phi i32 [ %.promoted58, %.lr.ph ], [ %34, %73 ]
  %29 = phi i32 [ %10, %.lr.ph ], [ %81, %73 ]
  %30 = sext i32 %28 to i64
  %31 = getelementptr inbounds [11 x i32], ptr %14, i64 0, i64 %30
  %32 = load i32, ptr %31, align 4, !tbaa !37
  %33 = add nsw i32 %28, 1
  %34 = srem i32 %33, 11
  store i32 %34, ptr %13, align 4, !tbaa !113
  %35 = icmp slt i32 %27, 1
  br i1 %35, label %36, label %40

36:                                               ; preds = %26
  %37 = load i64, ptr @H5E_CACHE_g, align 8, !tbaa !36
  %38 = load i64, ptr @H5E_SYSTEM_g, align 8, !tbaa !36
  %39 = tail call i32 (ptr, ptr, i32, i64, i64, ptr, ...) @H5E_printf_stack(ptr noundef nonnull @.str, ptr noundef nonnull @__func__.H5C__autoadjust__ageout__remove_excess_markers, i32 noundef 817, i64 noundef %37, i64 noundef %38, ptr noundef nonnull @.str.11) #5
  br label %.loopexit

40:                                               ; preds = %26
  %41 = add nsw i32 %27, -1
  store i32 %41, ptr %15, align 4, !tbaa !82
  %42 = sext i32 %32 to i64
  %43 = getelementptr inbounds [10 x i8], ptr %16, i64 0, i64 %42
  %44 = load i8, ptr %43, align 1, !tbaa !38, !range !39, !noundef !40
  %.not55.not = icmp eq i8 %44, 0
  br i1 %.not55.not, label %45, label %49

45:                                               ; preds = %40
  %46 = load i64, ptr @H5E_CACHE_g, align 8, !tbaa !36
  %47 = load i64, ptr @H5E_SYSTEM_g, align 8, !tbaa !36
  %48 = tail call i32 (ptr, ptr, i32, i64, i64, ptr, ...) @H5E_printf_stack(ptr noundef nonnull @.str, ptr noundef nonnull @__func__.H5C__autoadjust__ageout__remove_excess_markers, i32 noundef 821, i64 noundef %46, i64 noundef %47, ptr noundef nonnull @.str.12) #5
  br label %.loopexit

49:                                               ; preds = %40
  %50 = load ptr, ptr %17, align 8, !tbaa !83
  %51 = getelementptr inbounds [10 x %struct.H5C_cache_entry_t], ptr %18, i64 0, i64 %42
  %52 = icmp eq ptr %50, %51
  %53 = getelementptr inbounds nuw i8, ptr %51, i64 136
  %54 = load ptr, ptr %53, align 8, !tbaa !90
  br i1 %52, label %55, label %58

55:                                               ; preds = %49
  store ptr %54, ptr %17, align 8, !tbaa !83
  %.not56 = icmp eq ptr %54, null
  br i1 %.not56, label %62, label %56

56:                                               ; preds = %55
  %57 = getelementptr inbounds nuw i8, ptr %54, i64 144
  store ptr null, ptr %57, align 8, !tbaa !85
  br label %62

58:                                               ; preds = %49
  %59 = getelementptr inbounds nuw i8, ptr %51, i64 144
  %60 = load ptr, ptr %59, align 8, !tbaa !85
  %61 = getelementptr inbounds nuw i8, ptr %60, i64 136
  store ptr %54, ptr %61, align 8, !tbaa !90
  br label %62

62:                                               ; preds = %55, %56, %58
  %63 = phi ptr [ null, %55 ], [ %54, %56 ], [ %54, %58 ]
  %64 = load ptr, ptr %19, align 8, !tbaa !84
  %65 = icmp eq ptr %64, %51
  %66 = getelementptr inbounds nuw i8, ptr %51, i64 144
  %67 = load ptr, ptr %66, align 8, !tbaa !85
  br i1 %65, label %68, label %71

68:                                               ; preds = %62
  store ptr %67, ptr %19, align 8, !tbaa !84
  %.not57 = icmp eq ptr %67, null
  br i1 %.not57, label %73, label %69

69:                                               ; preds = %68
  %70 = getelementptr inbounds nuw i8, ptr %67, i64 136
  store ptr null, ptr %70, align 8, !tbaa !90
  br label %73

71:                                               ; preds = %62
  %72 = getelementptr inbounds nuw i8, ptr %63, i64 144
  store ptr %67, ptr %72, align 8, !tbaa !85
  br label %73

73:                                               ; preds = %68, %69, %71
  %74 = getelementptr inbounds nuw i8, ptr %51, i64 136
  tail call void @llvm.memset.p0.i64(ptr noundef nonnull align 8 dereferenceable(16) %74, i8 0, i64 16, i1 false)
  %75 = load i32, ptr %20, align 8, !tbaa !91
  %76 = add i32 %75, -1
  store i32 %76, ptr %20, align 8, !tbaa !91
  %77 = getelementptr inbounds nuw i8, ptr %51, i64 16
  %78 = load i64, ptr %77, align 8, !tbaa !92
  %79 = load i64, ptr %21, align 8, !tbaa !93
  %80 = sub i64 %79, %78
  store i64 %80, ptr %21, align 8, !tbaa !93
  store i8 0, ptr %43, align 1, !tbaa !38
  %81 = add nsw i32 %29, -1
  store i32 %81, ptr %9, align 8, !tbaa !63
  %82 = icmp sgt i32 %81, %12
  br i1 %82, label %26, label %.loopexit, !llvm.loop !115

.loopexit:                                        ; preds = %73, %22, %36, %45, %1
  %.0 = phi i32 [ -1, %22 ], [ -1, %36 ], [ -1, %45 ], [ 0, %1 ], [ 0, %73 ]
  ret i32 %.0
}